target datalayout = "e-m:e-p270:32:32-p271:32:32-p272:64:64-i64:64-i128:128-f80:128-n8:16:32:64-S128"
target triple = "x86_64-pc-linux-gnu"

@newkey = internal global ptr null, align 8
@cert = internal global ptr null, align 8
@default_null_provider = internal global ptr null, align 8
@provider = internal global ptr null, align 8
@libctx = internal global ptr null, align 8
@.str.14 = private unnamed_addr constant [31 x i8] c"../openssl/test/cmp_msg_test.c\00", align 1
@.str.15 = private unnamed_addr constant [28 x i8] c"Error parsing test options\0A\00", align 1
@.str.16 = private unnamed_addr constant [32 x i8] c"newkey_f = test_get_argument(0)\00", align 1
@newkey_f = internal global ptr null, align 8
@.str.17 = private unnamed_addr constant [37 x i8] c"server_cert_f = test_get_argument(1)\00", align 1
@server_cert_f = internal global ptr null, align 8
@.str.18 = private unnamed_addr constant [32 x i8] c"pkcs10_f = test_get_argument(2)\00", align 1
@pkcs10_f = internal global ptr null, align 8
@.str.19 = private unnamed_addr constant [23 x i8] c"usage: cmp_msg_test %s\00", align 1
@.str.20 = private unnamed_addr constant [62 x i8] c"new.key server.crt pkcs10.der module_name [module_conf_file]\0A\00", align 1
@.str.21 = private unnamed_addr constant [41 x i8] c"newkey = load_pkey_pem(newkey_f, libctx)\00", align 1
@.str.22 = private unnamed_addr constant [44 x i8] c"cert = load_cert_pem(server_cert_f, libctx)\00", align 1
@.str.23 = private unnamed_addr constant [2 x i8] c"1\00", align 1
@.str.24 = private unnamed_addr constant [43 x i8] c"RAND_bytes_ex(libctx, ref, sizeof(ref), 0)\00", align 1
@ref = internal global [15 x i8] zeroinitializer, align 1
@.str.25 = private unnamed_addr constant [46 x i8] c"test_cmp_create_certreq_with_invalid_bodytype\00", align 1
@.str.26 = private unnamed_addr constant [36 x i8] c"test_cmp_create_ir_protection_fails\00", align 1
@.str.27 = private unnamed_addr constant [34 x i8] c"test_cmp_create_ir_protection_set\00", align 1
@.str.28 = private unnamed_addr constant [26 x i8] c"test_cmp_create_error_msg\00", align 1
@.str.29 = private unnamed_addr constant [25 x i8] c"test_cmp_create_certconf\00", align 1
@.str.30 = private unnamed_addr constant [32 x i8] c"test_cmp_create_certconf_badAlg\00", align 1
@.str.31 = private unnamed_addr constant [39 x i8] c"test_cmp_create_certconf_fail_info_max\00", align 1
@.str.32 = private unnamed_addr constant [20 x i8] c"test_cmp_create_kur\00", align 1
@.str.33 = private unnamed_addr constant [36 x i8] c"test_cmp_create_kur_without_oldcert\00", align 1
@.str.34 = private unnamed_addr constant [19 x i8] c"test_cmp_create_cr\00", align 1
@.str.35 = private unnamed_addr constant [31 x i8] c"test_cmp_create_cr_without_key\00", align 1
@.str.36 = private unnamed_addr constant [22 x i8] c"test_cmp_create_p10cr\00", align 1
@.str.37 = private unnamed_addr constant [27 x i8] c"test_cmp_create_p10cr_null\00", align 1
@.str.38 = private unnamed_addr constant [24 x i8] c"test_cmp_create_pollreq\00", align 1
@.str.39 = private unnamed_addr constant [19 x i8] c"test_cmp_create_rr\00", align 1
@.str.40 = private unnamed_addr constant [19 x i8] c"test_cmp_create_rp\00", align 1
@.str.41 = private unnamed_addr constant [21 x i8] c"test_cmp_create_genm\00", align 1
@.str.42 = private unnamed_addr constant [24 x i8] c"test_cmp_create_certrep\00", align 1
@.str.43 = private unnamed_addr constant [24 x i8] c"test_cmp_create_pollrep\00", align 1
@.str.44 = private unnamed_addr constant [27 x i8] c"test_cmp_pkimessage_create\00", align 1

; Function Attrs: nounwind uwtable
define dso_local void @cleanup_tests() #0 {
  %1 = load ptr, ptr @newkey, align 8, !tbaa !4
  call void @EVP_PKEY_free(ptr noundef %1)
  %2 = load ptr, ptr @cert, align 8, !tbaa !9
  call void @X509_free(ptr noundef %2)
  %3 = load ptr, ptr @default_null_provider, align 8, !tbaa !11
  %4 = call i32 @OSSL_PROVIDER_unload(ptr noundef %3)
  %5 = load ptr, ptr @provider, align 8, !tbaa !11
  %6 = call i32 @OSSL_PROVIDER_unload(ptr noundef %5)
  %7 = load ptr, ptr @libctx, align 8, !tbaa !13
  call void @OSSL_LIB_CTX_free(ptr noundef %7)
  ret void
}

; Function Attrs: nounwind uwtable
define dso_local i32 @setup_tests() #0 {
  %1 = alloca i32, align 4
  %2 = call i32 @test_skip_common_options()
  %3 = icmp ne i32 %2, 0
  br i1 %3, label %5, label %4

4:                                                ; preds = %0
  call void (ptr, i32, ptr, ...) @test_error(ptr noundef @.str.14, i32 noundef 552, ptr noundef @.str.15)
  store i32 0, ptr %1, align 4
  br label %41

5:                                                ; preds = %0
  %6 = call ptr @test_get_argument(i64 noundef 0)
  store ptr %6, ptr @newkey_f, align 8, !tbaa !15
  %7 = call i32 @test_ptr(ptr noundef @.str.14, i32 noundef 556, ptr noundef @.str.16, ptr noundef %6)
  %8 = icmp ne i32 %7, 0
  br i1 %8, label %9, label %17

9:                                                ; preds = %5
  %10 = call ptr @test_get_argument(i64 noundef 1)
  store ptr %10, ptr @server_cert_f, align 8, !tbaa !15
  %11 = call i32 @test_ptr(ptr noundef @.str.14, i32 noundef 557, ptr noundef @.str.17, ptr noundef %10)
  %12 = icmp ne i32 %11, 0
  br i1 %12, label %13, label %17

13:                                               ; preds = %9
  %14 = call ptr @test_get_argument(i64 noundef 2)
  store ptr %14, ptr @pkcs10_f, align 8, !tbaa !15
  %15 = call i32 @test_ptr(ptr noundef @.str.14, i32 noundef 558, ptr noundef @.str.18, ptr noundef %14)
  %16 = icmp ne i32 %15, 0
  br i1 %16, label %18, label %17

17:                                               ; preds = %13, %9, %5
  call void (ptr, i32, ptr, ...) @test_error(ptr noundef @.str.14, i32 noundef 559, ptr noundef @.str.19, ptr noundef @.str.20)
  store i32 0, ptr %1, align 4
  br label %41

18:                                               ; preds = %13
  %19 = call i32 @test_arg_libctx(ptr noundef @libctx, ptr noundef @default_null_provider, ptr noundef @provider, i32 noundef 3, ptr noundef @.str.20)
  %20 = icmp ne i32 %19, 0
  br i1 %20, label %22, label %21

21:                                               ; preds = %18
  store i32 0, ptr %1, align 4
  br label %41

22:                                               ; preds = %18
  %23 = load ptr, ptr @newkey_f, align 8, !tbaa !15
  %24 = load ptr, ptr @libctx, align 8, !tbaa !13
  %25 = call ptr @load_pkey_pem(ptr noundef %23, ptr noundef %24)
  store ptr %25, ptr @newkey, align 8, !tbaa !4
  %26 = call i32 @test_ptr(ptr noundef @.str.14, i32 noundef 566, ptr noundef @.str.21, ptr noundef %25)
  %27 = icmp ne i32 %26, 0
  br i1 %27, label %28, label %39

28:                                               ; preds = %22
  %29 = load ptr, ptr @server_cert_f, align 8, !tbaa !15
  %30 = load ptr, ptr @libctx, align 8, !tbaa !13
  %31 = call ptr @load_cert_pem(ptr noundef %29, ptr noundef %30)
  store ptr %31, ptr @cert, align 8, !tbaa !9
  %32 = call i32 @test_ptr(ptr noundef @.str.14, i32 noundef 567, ptr noundef @.str.22, ptr noundef %31)
  %33 = icmp ne i32 %32, 0
  br i1 %33, label %34, label %39

34:                                               ; preds = %28
  %35 = load ptr, ptr @libctx, align 8, !tbaa !13
  %36 = call i32 @RAND_bytes_ex(ptr noundef %35, ptr noundef @ref, i64 noundef 15, i32 noundef 0)
  %37 = call i32 @test_int_eq(ptr noundef @.str.14, i32 noundef 568, ptr noundef @.str.23, ptr noundef @.str.24, i32 noundef 1, i32 noundef %36)
  %38 = icmp ne i32 %37, 0
  br i1 %38, label %40, label %39

39:                                               ; preds = %34, %28, %22
  call void @cleanup_tests()
  store i32 0, ptr %1, align 4
  br label %41

40:                                               ; preds = %34
  call void @add_test(ptr noundef @.str.25, ptr noundef @test_cmp_create_certreq_with_invalid_bodytype)
  call void @add_test(ptr noundef @.str.26, ptr noundef @test_cmp_create_ir_protection_fails)
  call void @add_test(ptr noundef @.str.27, ptr noundef @test_cmp_create_ir_protection_set)
  call void @add_test(ptr noundef @.str.28, ptr noundef @test_cmp_create_error_msg)
  call void @add_test(ptr noundef @.str.29, ptr noundef @test_cmp_create_certconf)
  call void @add_test(ptr noundef @.str.30, ptr noundef @test_cmp_create_certconf_badAlg)
  call void @add_test(ptr noundef @.str.31, ptr noundef @test_cmp_create_certconf_fail_info_max)
  call void @add_test(ptr noundef @.str.32, ptr noundef @test_cmp_create_kur)
  call void @add_test(ptr noundef @.str.33, ptr noundef @test_cmp_create_kur_without_oldcert)
  call void @add_test(ptr noundef @.str.34, ptr noundef @test_cmp_create_cr)
  call void @add_test(ptr noundef @.str.35, ptr noundef @test_cmp_create_cr_without_key)
  call void @add_test(ptr noundef @.str.36, ptr noundef @test_cmp_create_p10cr)
  call void @add_test(ptr noundef @.str.37, ptr noundef @test_cmp_create_p10cr_null)
  call void @add_test(ptr noundef @.str.38, ptr noundef @test_cmp_create_pollreq)
  call void @add_test(ptr noundef @.str.39, ptr noundef @test_cmp_create_rr)
  call void @add_test(ptr noundef @.str.40, ptr noundef @test_cmp_create_rp)
  call void @add_test(ptr noundef @.str.41, ptr noundef @test_cmp_create_genm)
  call void @add_test(ptr noundef @.str.42, ptr noundef @test_cmp_create_certrep)
  call void @add_test(ptr noundef @.str.43, ptr noundef @test_cmp_create_pollrep)
  call void @add_all_tests(ptr noundef @.str.44, ptr noundef @test_cmp_pkimessage_create, i32 noundef 27, i32 noundef 0)
  store i32 1, ptr %1, align 4
  br label %41

41:                                               ; preds = %40, %39, %21, %17, %4
  %42 = load i32, ptr %1, align 4
  ret i32 %42
}