; Function Attrs: nounwind uwtable
define dso_local range(i32 0, 2) i32 @setup_tests() local_unnamed_addr #0 {
  %1 = tail call i32 @test_skip_common_options() #4
  %.not = icmp eq i32 %1, 0
  br i1 %.not, label %2, label %3

2:                                                ; preds = %0
  tail call void (ptr, i32, ptr, ...) @test_error(ptr noundef nonnull @.str.14, i32 noundef 552, ptr noundef nonnull @.str.15) #4
  br label %38

3:                                                ; preds = %0
  %4 = tail call ptr @test_get_argument(i64 noundef 0) #4
  store ptr %4, ptr @newkey_f, align 8, !tbaa !15
  %5 = tail call i32 @test_ptr(ptr noundef nonnull @.str.14, i32 noundef 556, ptr noundef nonnull @.str.16, ptr noundef %4) #4
  %.not1 = icmp eq i32 %5, 0
  br i1 %.not1, label %12, label %6

6:                                                ; preds = %3
  %7 = tail call ptr @test_get_argument(i64 noundef 1) #4
  store ptr %7, ptr @server_cert_f, align 8, !tbaa !15
  %8 = tail call i32 @test_ptr(ptr noundef nonnull @.str.14, i32 noundef 557, ptr noundef nonnull @.str.17, ptr noundef %7) #4
  %.not2 = icmp eq i32 %8, 0
  br i1 %.not2, label %12, label %9

9:                                                ; preds = %6
  %10 = tail call ptr @test_get_argument(i64 noundef 2) #4
  store ptr %10, ptr @pkcs10_f, align 8, !tbaa !15
  %11 = tail call i32 @test_ptr(ptr noundef nonnull @.str.14, i32 noundef 558, ptr noundef nonnull @.str.18, ptr noundef %10) #4
  %.not3 = icmp eq i32 %11, 0
  br i1 %.not3, label %12, label %13

12:                                               ; preds = %9, %6, %3
  tail call void (ptr, i32, ptr, ...) @test_error(ptr noundef nonnull @.str.14, i32 noundef 559, ptr noundef nonnull @.str.19, ptr noundef nonnull @.str.20) #4
  br label %38

13:                                               ; preds = %9
  %14 = tail call i32 @test_arg_libctx(ptr noundef nonnull @libctx, ptr noundef nonnull @default_null_provider, ptr noundef nonnull @provider, i32 noundef 3, ptr noundef nonnull @.str.20) #4
  %.not4 = icmp eq i32 %14, 0
  br i1 %.not4, label %38, label %15

15:                                               ; preds = %13
  %16 = load ptr, ptr @newkey_f, align 8, !tbaa !15
  %17 = load ptr, ptr @libctx, align 8, !tbaa !13
  %18 = tail call ptr @load_pkey_pem(ptr noundef %16, ptr noundef %17) #4
  store ptr %18, ptr @newkey, align 8, !tbaa !4
  %19 = tail call i32 @test_ptr(ptr noundef nonnull @.str.14, i32 noundef 566, ptr noundef nonnull @.str.21, ptr noundef %18) #4
  %.not5 = icmp eq i32 %19, 0
  br i1 %.not5, label %29, label %20

20:                                               ; preds = %15
  %21 = load ptr, ptr @server_cert_f, align 8, !tbaa !15
  %22 = load ptr, ptr @libctx, align 8, !tbaa !13
  %23 = tail call ptr @load_cert_pem(ptr noundef %21, ptr noundef %22) #4
  store ptr %23, ptr @cert, align 8, !tbaa !9
  %24 = tail call i32 @test_ptr(ptr noundef nonnull @.str.14, i32 noundef 567, ptr noundef nonnull @.str.22, ptr noundef %23) #4
  %.not6 = icmp eq i32 %24, 0
  br i1 %.not6, label %29, label %25

25:                                               ; preds = %20
  %26 = load ptr, ptr @libctx, align 8, !tbaa !13
  %27 = tail call i32 @RAND_bytes_ex(ptr noundef %26, ptr noundef nonnull @ref, i64 noundef 15, i32 noundef 0) #4
  %28 = tail call i32 @test_int_eq(ptr noundef nonnull @.str.14, i32 noundef 568, ptr noundef nonnull @.str.23, ptr noundef nonnull @.str.24, i32 noundef 1, i32 noundef %27) #4
  %.not7 = icmp eq i32 %28, 0
  br i1 %.not7, label %29, label %37

29:                                               ; preds = %25, %20, %15
  %30 = load ptr, ptr @newkey, align 8, !tbaa !4
  tail call void @EVP_PKEY_free(ptr noundef %30) #4
  %31 = load ptr, ptr @cert, align 8, !tbaa !9
  tail call void @X509_free(ptr noundef %31) #4
  %32 = load ptr, ptr @default_null_provider, align 8, !tbaa !11
  %33 = tail call i32 @OSSL_PROVIDER_unload(ptr noundef %32) #4
  %34 = load ptr, ptr @provider, align 8, !tbaa !11
  %35 = tail call i32 @OSSL_PROVIDER_unload(ptr noundef %34) #4
  %36 = load ptr, ptr @libctx, align 8, !tbaa !13
  tail call void @OSSL_LIB_CTX_free(ptr noundef %36) #4
  br label %38

37:                                               ; preds = %25
  tail call void @add_test(ptr noundef nonnull @.str.25, ptr noundef nonnull @test_cmp_create_certreq_with_invalid_bodytype) #4
  tail call void @add_test(ptr noundef nonnull @.str.26, ptr noundef nonnull @test_cmp_create_ir_protection_fails) #4
  tail call void @add_test(ptr noundef nonnull @.str.27, ptr noundef nonnull @test_cmp_create_ir_protection_set) #4
  tail call void @add_test(ptr noundef nonnull @.str.28, ptr noundef nonnull @test_cmp_create_error_msg) #4
  tail call void @add_test(ptr noundef nonnull @.str.29, ptr noundef nonnull @test_cmp_create_certconf) #4
  tail call void @add_test(ptr noundef nonnull @.str.30, ptr noundef nonnull @test_cmp_create_certconf_badAlg) #4
  tail call void @add_test(ptr noundef nonnull @.str.31, ptr noundef nonnull @test_cmp_create_certconf_fail_info_max) #4
  tail call void @add_test(ptr noundef nonnull @.str.32, ptr noundef nonnull @test_cmp_create_kur) #4
  tail call void @add_test(ptr noundef nonnull @.str.33, ptr noundef nonnull @test_cmp_create_kur_without_oldcert) #4
  tail call void @add_test(ptr noundef nonnull @.str.34, ptr noundef nonnull @test_cmp_create_cr) #4
  tail call void @add_test(ptr noundef nonnull @.str.35, ptr noundef nonnull @test_cmp_create_cr_without_key) #4
  tail call void @add_test(ptr noundef nonnull @.str.36, ptr noundef nonnull @test_cmp_create_p10cr) #4
  tail call void @add_test(ptr noundef nonnull @.str.37, ptr noundef nonnull @test_cmp_create_p10cr_null) #4
  tail call void @add_test(ptr noundef nonnull @.str.38, ptr noundef nonnull @test_cmp_create_pollreq) #4
  tail call void @add_test(ptr noundef nonnull @.str.39, ptr noundef nonnull @test_cmp_create_rr) #4
  tail call void @add_test(ptr noundef nonnull @.str.40, ptr noundef nonnull @test_cmp_create_rp) #4
  tail call void @add_test(ptr noundef nonnull @.str.41, ptr noundef nonnull @test_cmp_create_genm) #4
  tail call void @add_test(ptr noundef nonnull @.str.42, ptr noundef nonnull @test_cmp_create_certrep) #4
  tail call void @add_test(ptr noundef nonnull @.str.43, ptr noundef nonnull @test_cmp_create_pollrep) #4
  tail call void @add_all_tests(ptr noundef nonnull @.str.44, ptr noundef nonnull @test_cmp_pkimessage_create, i32 noundef 27, i32 noundef 0) #4
  br label %38

38:                                               ; preds = %13, %37, %29, %12, %2
  %.0 = phi i32 [ 1, %37 ], [ 0, %29 ], [ 0, %12 ], [ 0, %2 ], [ 0, %13 ]
  ret i32 %.0
}